; ModuleID = '53/801.c'
source_filename = "53/801.c"
target datalayout = "e-m:e-p270:32:32-p271:32:32-p272:64:64-i64:64-f80:128-n8:16:32:64-S128"
target triple = "x86_64-pc-linux-gnu"

@.str = private unnamed_addr constant [3 x i8] c"%d\00", align 1
@.str.1 = private unnamed_addr constant [4 x i8] c"%d,\00", align 1

; Function Attrs: noinline nounwind uwtable
define dso_local i32 @main() #0 {
  %1 = alloca i32, align 4
  %2 = alloca i32, align 4
  %3 = alloca [100 x i32], align 16
  %4 = alloca [100 x i32], align 16
  %5 = alloca i32, align 4
  %6 = alloca i32, align 4
  %7 = alloca i32, align 4
  %8 = alloca i32, align 4
  store i32 0, i32* %1, align 4
  %9 = call i32 (i8*, ...) @__isoc99_scanf(i8* getelementptr inbounds ([3 x i8], [3 x i8]* @.str, i64 0, i64 0), i32* %2)
  store i32 0, i32* %7, align 4
  store i32 0, i32* %5, align 4
  br label %10

10:                                               ; preds = %19, %0
  %11 = load i32, i32* %5, align 4
  %12 = load i32, i32* %2, align 4
  %13 = icmp slt i32 %11, %12
  br i1 %13, label %14, label %22

14:                                               ; preds = %10
  %15 = load i32, i32* %5, align 4
  %16 = sext i32 %15 to i64
  %17 = getelementptr inbounds [100 x i32], [100 x i32]* %3, i64 0, i64 %16
  %18 = call i32 (i8*, ...) @__isoc99_scanf(i8* getelementptr inbounds ([3 x i8], [3 x i8]* @.str, i64 0, i64 0), i32* %17)
  br label %19

19:                                               ; preds = %14
  %20 = load i32, i32* %5, align 4
  %21 = add nsw i32 %20, 1
  store i32 %21, i32* %5, align 4
  br label %10

22:                                               ; preds = %10
  %23 = load i32, i32* %2, align 4
  %24 = sub nsw i32 %23, 1
  store i32 %24, i32* %5, align 4
  br label %25

25:                                               ; preds = %65, %22
  %26 = load i32, i32* %5, align 4
  %27 = icmp sge i32 %26, 0
  br i1 %27, label %28, label %68

28:                                               ; preds = %25
  store i32 0, i32* %6, align 4
  %29 = load i32, i32* %5, align 4
  %30 = sub nsw i32 %29, 1
  store i32 %30, i32* %8, align 4
  br label %31

31:                                               ; preds = %48, %28
  %32 = load i32, i32* %8, align 4
  %33 = icmp sge i32 %32, 0
  br i1 %33, label %34, label %51

34:                                               ; preds = %31
  %35 = load i32, i32* %5, align 4
  %36 = sext i32 %35 to i64
  %37 = getelementptr inbounds [100 x i32], [100 x i32]* %3, i64 0, i64 %36
  %38 = load i32, i32* %37, align 4
  %39 = load i32, i32* %8, align 4
  %40 = sext i32 %39 to i64
  %41 = getelementptr inbounds [100 x i32], [100 x i32]* %3, i64 0, i64 %40
  %42 = load i32, i32* %41, align 4
  %43 = icmp eq i32 %38, %42
  br i1 %43, label %44, label %47

44:                                               ; preds = %34
  %45 = load i32, i32* %6, align 4
  %46 = add nsw i32 %45, 1
  store i32 %46, i32* %6, align 4
  br label %47

47:                                               ; preds = %44, %34
  br label %48

48:                                               ; preds = %47
  %49 = load i32, i32* %8, align 4
  %50 = add nsw i32 %49, -1
  store i32 %50, i32* %8, align 4
  br label %31

51:                                               ; preds = %31
  %52 = load i32, i32* %6, align 4
  %53 = icmp eq i32 %52, 0
  br i1 %53, label %54, label %64

54:                                               ; preds = %51
  %55 = load i32, i32* %5, align 4
  %56 = sext i32 %55 to i64
  %57 = getelementptr inbounds [100 x i32], [100 x i32]* %3, i64 0, i64 %56
  %58 = load i32, i32* %57, align 4
  %59 = load i32, i32* %7, align 4
  %60 = sext i32 %59 to i64
  %61 = getelementptr inbounds [100 x i32], [100 x i32]* %4, i64 0, i64 %60
  store i32 %58, i32* %61, align 4
  %62 = load i32, i32* %7, align 4
  %63 = add nsw i32 %62, 1
  store i32 %63, i32* %7, align 4
  br label %64

64:                                               ; preds = %54, %51
  br label %65

65:                                               ; preds = %64
  %66 = load i32, i32* %5, align 4
  %67 = add nsw i32 %66, -1
  store i32 %67, i32* %5, align 4
  br label %25

68:                                               ; preds = %25
  %69 = load i32, i32* %7, align 4
  %70 = sub nsw i32 %69, 1
  store i32 %70, i32* %5, align 4
  br label %71

71:                                               ; preds = %80, %68
  %72 = load i32, i32* %5, align 4
  %73 = icmp sgt i32 %72, 0
  br i1 %73, label %74, label %83

74:                                               ; preds = %71
  %75 = load i32, i32* %5, align 4
  %76 = sext i32 %75 to i64
  %77 = getelementptr inbounds [100 x i32], [100 x i32]* %4, i64 0, i64 %76
  %78 = load i32, i32* %77, align 4
  %79 = call i32 (i8*, ...) @printf(i8* getelementptr inbounds ([4 x i8], [4 x i8]* @.str.1, i64 0, i64 0), i32 %78)
  br label %80

80:                                               ; preds = %74
  %81 = load i32, i32* %5, align 4
  %82 = add nsw i32 %81, -1
  store i32 %82, i32* %5, align 4
  br label %71

83:                                               ; preds = %71
  %84 = getelementptr inbounds [100 x i32], [100 x i32]* %4, i64 0, i64 0
  %85 = load i32, i32* %84, align 16
  %86 = call i32 (i8*, ...) @printf(i8* getelementptr inbounds ([3 x i8], [3 x i8]* @.str, i64 0, i64 0), i32 %85)
  ret i32 0
}

declare dso_local i32 @__isoc99_scanf(i8*, ...) #1

declare dso_local i32 @printf(i8*, ...) #1


!llvm.module.flags = !{!0}
!llvm.ident = !{!1}

!0 = !{i32 1, !"wchar_size", i32 4}
!1 = !{!"clang version 10.0.0-4ubuntu1 "}
